target datalayout = "e-m:e-p270:32:32-p271:32:32-p272:64:64-i64:64-i128:128-f80:128-n8:16:32:64-S128"
target triple = "x86_64-pc-linux-gnu"

%struct.FunctionCallInfoBaseData = type { ptr, ptr, ptr, i32, i8, i16, [0 x %struct.NullableDatum] }
%struct.NullableDatum = type { i64, i8 }
%struct.stat = type { i64, i64, i64, i32, i32, i32, i32, i64, i64, i64, i64, %struct.timespec, %struct.timespec, %struct.timespec, [3 x i64] }
%struct.timespec = type { i64, i64 }
%struct.HeapTupleData = type { i32, %struct.ItemPointerData, i32, ptr }
%struct.ItemPointerData = type { %struct.BlockIdData, i16 }
%struct.BlockIdData = type { i16, i16 }

@.str = private unnamed_addr constant [29 x i8] c"could not stat file \22%s\22: %m\00", align 1
@.str.1 = private unnamed_addr constant [10 x i8] c"genfile.c\00", align 1
@__func__.pg_stat_file = private unnamed_addr constant [13 x i8] c"pg_stat_file\00", align 1
@.str.2 = private unnamed_addr constant [5 x i8] c"size\00", align 1
@.str.3 = private unnamed_addr constant [7 x i8] c"access\00", align 1
@.str.4 = private unnamed_addr constant [13 x i8] c"modification\00", align 1
@.str.5 = private unnamed_addr constant [7 x i8] c"change\00", align 1
@.str.6 = private unnamed_addr constant [9 x i8] c"creation\00", align 1
@.str.7 = private unnamed_addr constant [6 x i8] c"isdir\00", align 1

; Function Attrs: inlinehint nounwind uwtable
define internal i64 @HeapTupleGetDatum(ptr noundef %0) #3 {
  %2 = alloca ptr, align 8
  store ptr %0, ptr %2, align 8
  %3 = load ptr, ptr %2, align 8
  %4 = getelementptr inbounds nuw %struct.HeapTupleData, ptr %3, i32 0, i32 3
  %5 = load ptr, ptr %4, align 8
  %6 = call i64 @HeapTupleHeaderGetDatum(ptr noundef %5)
  ret i64 %6
}

; Function Attrs: inlinehint nounwind uwtable
define internal i64 @BoolGetDatum(i1 noundef zeroext %0) #3 {
  %2 = alloca i8, align 1
  %3 = zext i1 %0 to i8
  store i8 %3, ptr %2, align 1
  %4 = load i8, ptr %2, align 1, !range !4, !noundef !5
  %5 = trunc i8 %4 to i1
  %6 = select i1 %5, i32 1, i32 0
  %7 = sext i32 %6 to i64
  ret i64 %7
}

; Function Attrs: inlinehint nounwind uwtable
define internal i64 @TimestampTzGetDatum(i64 noundef %0) #3 {
  %2 = alloca i64, align 8
  store i64 %0, ptr %2, align 8
  %3 = load i64, ptr %2, align 8
  %4 = call i64 @Int64GetDatum(i64 noundef %3)
  ret i64 %4
}

; Function Attrs: inlinehint nounwind uwtable
define internal i64 @Int64GetDatum(i64 noundef %0) #3 {
  %2 = alloca i64, align 8
  store i64 %0, ptr %2, align 8
  %3 = load i64, ptr %2, align 8
  ret i64 %3
}

; Function Attrs: inlinehint nounwind uwtable
define internal zeroext i1 @DatumGetBool(i64 noundef %0) #3 {
  %2 = alloca i64, align 8
  store i64 %0, ptr %2, align 8
  %3 = load i64, ptr %2, align 8
  %4 = icmp ne i64 %3, 0
  ret i1 %4
}

; Function Attrs: inlinehint nounwind uwtable
define internal ptr @DatumGetPointer(i64 noundef %0) #3 {
  %2 = alloca i64, align 8
  store i64 %0, ptr %2, align 8
  %3 = load i64, ptr %2, align 8
  %4 = inttoptr i64 %3 to ptr
  ret ptr %4
}

; Function Attrs: nounwind uwtable
define dso_local i64 @pg_stat_file(ptr noundef %0) #0 {
  %2 = alloca i64, align 8
  %3 = alloca ptr, align 8
  %4 = alloca ptr, align 8
  %5 = alloca ptr, align 8
  %6 = alloca %struct.stat, align 8
  %7 = alloca [6 x i64], align 16
  %8 = alloca [6 x i8], align 1
  %9 = alloca ptr, align 8
  %10 = alloca ptr, align 8
  %11 = alloca i8, align 1
  %12 = alloca i32, align 4
  store ptr %0, ptr %3, align 8
  call void @llvm.lifetime.start.p0(i64 8, ptr %4) #9
  %13 = load ptr, ptr %3, align 8
  %14 = getelementptr inbounds nuw %struct.FunctionCallInfoBaseData, ptr %13, i32 0, i32 6
  %15 = getelementptr inbounds [0 x %struct.NullableDatum], ptr %14, i64 0, i64 0
  %16 = getelementptr inbounds nuw %struct.NullableDatum, ptr %15, i32 0, i32 0
  %17 = load i64, ptr %16, align 8
  %18 = call ptr @DatumGetPointer(i64 noundef %17)
  %19 = call ptr @pg_detoast_datum_packed(ptr noundef %18)
  store ptr %19, ptr %4, align 8
  call void @llvm.lifetime.start.p0(i64 8, ptr %5) #9
  call void @llvm.lifetime.start.p0(i64 144, ptr %6) #9
  call void @llvm.lifetime.start.p0(i64 48, ptr %7) #9
  call void @llvm.lifetime.start.p0(i64 6, ptr %8) #9
  call void @llvm.lifetime.start.p0(i64 8, ptr %9) #9
  call void @llvm.lifetime.start.p0(i64 8, ptr %10) #9
  call void @llvm.lifetime.start.p0(i64 1, ptr %11) #9
  store i8 0, ptr %11, align 1
  %20 = load ptr, ptr %3, align 8
  %21 = getelementptr inbounds nuw %struct.FunctionCallInfoBaseData, ptr %20, i32 0, i32 5
  %22 = load i16, ptr %21, align 2
  %23 = sext i16 %22 to i32
  %24 = icmp eq i32 %23, 2
  br i1 %24, label %25, label %33

25:                                               ; preds = %1
  %26 = load ptr, ptr %3, align 8
  %27 = getelementptr inbounds nuw %struct.FunctionCallInfoBaseData, ptr %26, i32 0, i32 6
  %28 = getelementptr inbounds [0 x %struct.NullableDatum], ptr %27, i64 0, i64 1
  %29 = getelementptr inbounds nuw %struct.NullableDatum, ptr %28, i32 0, i32 0
  %30 = load i64, ptr %29, align 8
  %31 = call zeroext i1 @DatumGetBool(i64 noundef %30)
  %32 = zext i1 %31 to i8
  store i8 %32, ptr %11, align 1
  br label %33

33:                                               ; preds = %25, %1
  %34 = load ptr, ptr %4, align 8
  %35 = call ptr @convert_and_check_filename(ptr noundef %34)
  store ptr %35, ptr %5, align 8
  %36 = load ptr, ptr %5, align 8
  %37 = call i32 @stat(ptr noundef %36, ptr noundef %6) #9
  %38 = icmp slt i32 %37, 0
  br i1 %38, label %39, label %66

39:                                               ; preds = %33
  %40 = load i8, ptr %11, align 1, !range !4, !noundef !5
  %41 = trunc i8 %40 to i1
  br i1 %41, label %42, label %52

42:                                               ; preds = %39
  %43 = call ptr @__errno_location() #11
  %44 = load i32, ptr %43, align 4
  %45 = icmp eq i32 %44, 2
  br i1 %45, label %46, label %52

46:                                               ; preds = %42
  br label %47

47:                                               ; preds = %46
  %48 = load ptr, ptr %3, align 8
  %49 = getelementptr inbounds nuw %struct.FunctionCallInfoBaseData, ptr %48, i32 0, i32 4
  store i8 1, ptr %49, align 4
  store i64 0, ptr %2, align 8
  store i32 1, ptr %12, align 4
  br label %113

50:                                               ; No predecessors!
  br label %51

51:                                               ; preds = %50
  br label %65

52:                                               ; preds = %42, %39
  br label %53

53:                                               ; preds = %52
  br i1 true, label %54, label %56

54:                                               ; preds = %53
  %55 = call zeroext i1 @errstart_cold(i32 noundef 21, ptr noundef null) #10
  br i1 %55, label %58, label %62

56:                                               ; preds = %53
  %57 = call zeroext i1 @errstart(i32 noundef 21, ptr noundef null)
  br i1 %57, label %58, label %62

58:                                               ; preds = %56, %54
  %59 = call i32 @errcode_for_file_access()
  %60 = load ptr, ptr %5, align 8
  %61 = call i32 (ptr, ...) @errmsg(ptr noundef @.str, ptr noundef %60)
  call void @errfinish(ptr noundef @.str.1, i32 noundef 437, ptr noundef @__func__.pg_stat_file)
  br label %62

62:                                               ; preds = %58, %56, %54
  unreachable

63:                                               ; No predecessors!
  br label %64

64:                                               ; preds = %63
  br label %65

65:                                               ; preds = %64, %51
  br label %66

66:                                               ; preds = %65, %33
  %67 = call ptr @CreateTemplateTupleDesc(i32 noundef 6)
  store ptr %67, ptr %10, align 8
  %68 = load ptr, ptr %10, align 8
  call void @TupleDescInitEntry(ptr noundef %68, i16 noundef signext 1, ptr noundef @.str.2, i32 noundef 20, i32 noundef -1, i32 noundef 0)
  %69 = load ptr, ptr %10, align 8
  call void @TupleDescInitEntry(ptr noundef %69, i16 noundef signext 2, ptr noundef @.str.3, i32 noundef 1184, i32 noundef -1, i32 noundef 0)
  %70 = load ptr, ptr %10, align 8
  call void @TupleDescInitEntry(ptr noundef %70, i16 noundef signext 3, ptr noundef @.str.4, i32 noundef 1184, i32 noundef -1, i32 noundef 0)
  %71 = load ptr, ptr %10, align 8
  call void @TupleDescInitEntry(ptr noundef %71, i16 noundef signext 4, ptr noundef @.str.5, i32 noundef 1184, i32 noundef -1, i32 noundef 0)
  %72 = load ptr, ptr %10, align 8
  call void @TupleDescInitEntry(ptr noundef %72, i16 noundef signext 5, ptr noundef @.str.6, i32 noundef 1184, i32 noundef -1, i32 noundef 0)
  %73 = load ptr, ptr %10, align 8
  call void @TupleDescInitEntry(ptr noundef %73, i16 noundef signext 6, ptr noundef @.str.7, i32 noundef 16, i32 noundef -1, i32 noundef 0)
  %74 = load ptr, ptr %10, align 8
  %75 = call ptr @BlessTupleDesc(ptr noundef %74)
  %76 = getelementptr inbounds [6 x i8], ptr %8, i64 0, i64 0
  call void @llvm.memset.p0.i64(ptr align 1 %76, i8 0, i64 6, i1 false)
  %77 = getelementptr inbounds nuw %struct.stat, ptr %6, i32 0, i32 8
  %78 = load i64, ptr %77, align 8
  %79 = call i64 @Int64GetDatum(i64 noundef %78)
  %80 = getelementptr inbounds [6 x i64], ptr %7, i64 0, i64 0
  store i64 %79, ptr %80, align 16
  %81 = getelementptr inbounds nuw %struct.stat, ptr %6, i32 0, i32 11
  %82 = getelementptr inbounds nuw %struct.timespec, ptr %81, i32 0, i32 0
  %83 = load i64, ptr %82, align 8
  %84 = call i64 @time_t_to_timestamptz(i64 noundef %83)
  %85 = call i64 @TimestampTzGetDatum(i64 noundef %84)
  %86 = getelementptr inbounds [6 x i64], ptr %7, i64 0, i64 1
  store i64 %85, ptr %86, align 8
  %87 = getelementptr inbounds nuw %struct.stat, ptr %6, i32 0, i32 12
  %88 = getelementptr inbounds nuw %struct.timespec, ptr %87, i32 0, i32 0
  %89 = load i64, ptr %88, align 8
  %90 = call i64 @time_t_to_timestamptz(i64 noundef %89)
  %91 = call i64 @TimestampTzGetDatum(i64 noundef %90)
  %92 = getelementptr inbounds [6 x i64], ptr %7, i64 0, i64 2
  store i64 %91, ptr %92, align 16
  %93 = getelementptr inbounds nuw %struct.stat, ptr %6, i32 0, i32 13
  %94 = getelementptr inbounds nuw %struct.timespec, ptr %93, i32 0, i32 0
  %95 = load i64, ptr %94, align 8
  %96 = call i64 @time_t_to_timestamptz(i64 noundef %95)
  %97 = call i64 @TimestampTzGetDatum(i64 noundef %96)
  %98 = getelementptr inbounds [6 x i64], ptr %7, i64 0, i64 3
  store i64 %97, ptr %98, align 8
  %99 = getelementptr inbounds [6 x i8], ptr %8, i64 0, i64 4
  store i8 1, ptr %99, align 1
  %100 = getelementptr inbounds nuw %struct.stat, ptr %6, i32 0, i32 3
  %101 = load i32, ptr %100, align 8
  %102 = and i32 %101, 61440
  %103 = icmp eq i32 %102, 16384
  %104 = call i64 @BoolGetDatum(i1 noundef zeroext %103)
  %105 = getelementptr inbounds [6 x i64], ptr %7, i64 0, i64 5
  store i64 %104, ptr %105, align 8
  %106 = load ptr, ptr %10, align 8
  %107 = getelementptr inbounds [6 x i64], ptr %7, i64 0, i64 0
  %108 = getelementptr inbounds [6 x i8], ptr %8, i64 0, i64 0
  %109 = call ptr @heap_form_tuple(ptr noundef %106, ptr noundef %107, ptr noundef %108)
  store ptr %109, ptr %9, align 8
  %110 = load ptr, ptr %5, align 8
  call void @pfree(ptr noundef %110)
  %111 = load ptr, ptr %9, align 8
  %112 = call i64 @HeapTupleGetDatum(ptr noundef %111)
  store i64 %112, ptr %2, align 8
  store i32 1, ptr %12, align 4
  br label %113

113:                                              ; preds = %66, %47
  call void @llvm.lifetime.end.p0(i64 1, ptr %11) #9
  call void @llvm.lifetime.end.p0(i64 8, ptr %10) #9
  call void @llvm.lifetime.end.p0(i64 8, ptr %9) #9
  call void @llvm.lifetime.end.p0(i64 6, ptr %8) #9
  call void @llvm.lifetime.end.p0(i64 48, ptr %7) #9
  call void @llvm.lifetime.end.p0(i64 144, ptr %6) #9
  call void @llvm.lifetime.end.p0(i64 8, ptr %5) #9
  call void @llvm.lifetime.end.p0(i64 8, ptr %4) #9
  %114 = load i64, ptr %2, align 8
  ret i64 %114
}