; Function Attrs: nounwind uwtable
define dso_local i64 @pg_stat_file(ptr noundef captures(none) %0) local_unnamed_addr #0 {
  %2 = alloca %struct.stat, align 8
  %3 = alloca [6 x i64], align 16
  %4 = alloca [6 x i8], align 1
  %5 = getelementptr inbounds nuw i8, ptr %0, i64 32
  %6 = load i64, ptr %5, align 8
  %7 = inttoptr i64 %6 to ptr
  %8 = tail call ptr @pg_detoast_datum_packed(ptr noundef %7) #9
  call void @llvm.lifetime.start.p0(i64 144, ptr nonnull %2) #9
  call void @llvm.lifetime.start.p0(i64 48, ptr nonnull %3) #9
  call void @llvm.lifetime.start.p0(i64 6, ptr nonnull %4) #9
  %9 = getelementptr inbounds nuw i8, ptr %0, i64 30
  %10 = load i16, ptr %9, align 2
  %11 = icmp eq i16 %10, 2
  br i1 %11, label %12, label %16

12:                                               ; preds = %1
  %13 = getelementptr inbounds nuw i8, ptr %0, i64 48
  %14 = load i64, ptr %13, align 8
  %15 = icmp ne i64 %14, 0
  br label %16

16:                                               ; preds = %12, %1
  %.0 = phi i1 [ %15, %12 ], [ false, %1 ]
  %17 = tail call fastcc ptr @convert_and_check_filename(ptr noundef %8)
  %18 = call i32 @stat(ptr noundef %17, ptr noundef nonnull %2) #9
  %19 = icmp slt i32 %18, 0
  br i1 %19, label %20, label %31

20:                                               ; preds = %16
  br i1 %.0, label %21, label %27

21:                                               ; preds = %20
  %22 = tail call ptr @__errno_location() #11
  %23 = load i32, ptr %22, align 4
  %24 = icmp eq i32 %23, 2
  br i1 %24, label %25, label %27

25:                                               ; preds = %21
  %26 = getelementptr inbounds nuw i8, ptr %0, i64 28
  store i8 1, ptr %26, align 4
  br label %58

27:                                               ; preds = %21, %20
  %28 = tail call zeroext i1 @errstart_cold(i32 noundef 21, ptr noundef null) #10
  tail call void @llvm.assume(i1 %28)
  %29 = tail call i32 @errcode_for_file_access() #9
  %30 = tail call i32 (ptr, ...) @errmsg(ptr noundef nonnull @.str, ptr noundef %17) #9
  tail call void @errfinish(ptr noundef nonnull @.str.1, i32 noundef 437, ptr noundef nonnull @__func__.pg_stat_file) #9
  unreachable

31:                                               ; preds = %16
  %32 = tail call ptr @CreateTemplateTupleDesc(i32 noundef 6) #9
  tail call void @TupleDescInitEntry(ptr noundef %32, i16 noundef signext 1, ptr noundef nonnull @.str.2, i32 noundef 20, i32 noundef -1, i32 noundef 0) #9
  tail call void @TupleDescInitEntry(ptr noundef %32, i16 noundef signext 2, ptr noundef nonnull @.str.3, i32 noundef 1184, i32 noundef -1, i32 noundef 0) #9
  tail call void @TupleDescInitEntry(ptr noundef %32, i16 noundef signext 3, ptr noundef nonnull @.str.4, i32 noundef 1184, i32 noundef -1, i32 noundef 0) #9
  tail call void @TupleDescInitEntry(ptr noundef %32, i16 noundef signext 4, ptr noundef nonnull @.str.5, i32 noundef 1184, i32 noundef -1, i32 noundef 0) #9
  tail call void @TupleDescInitEntry(ptr noundef %32, i16 noundef signext 5, ptr noundef nonnull @.str.6, i32 noundef 1184, i32 noundef -1, i32 noundef 0) #9
  tail call void @TupleDescInitEntry(ptr noundef %32, i16 noundef signext 6, ptr noundef nonnull @.str.7, i32 noundef 16, i32 noundef -1, i32 noundef 0) #9
  %33 = tail call ptr @BlessTupleDesc(ptr noundef %32) #9
  call void @llvm.memset.p0.i64(ptr noundef nonnull align 1 dereferenceable(6) %4, i8 0, i64 6, i1 false)
  %34 = getelementptr inbounds nuw i8, ptr %2, i64 48
  %35 = load i64, ptr %34, align 8
  store i64 %35, ptr %3, align 16
  %36 = getelementptr inbounds nuw i8, ptr %2, i64 72
  %37 = load i64, ptr %36, align 8
  %38 = tail call i64 @time_t_to_timestamptz(i64 noundef %37) #9
  %39 = getelementptr inbounds nuw i8, ptr %3, i64 8
  store i64 %38, ptr %39, align 8
  %40 = getelementptr inbounds nuw i8, ptr %2, i64 88
  %41 = load i64, ptr %40, align 8
  %42 = tail call i64 @time_t_to_timestamptz(i64 noundef %41) #9
  %43 = getelementptr inbounds nuw i8, ptr %3, i64 16
  store i64 %42, ptr %43, align 16
  %44 = getelementptr inbounds nuw i8, ptr %2, i64 104
  %45 = load i64, ptr %44, align 8
  %46 = tail call i64 @time_t_to_timestamptz(i64 noundef %45) #9
  %47 = getelementptr inbounds nuw i8, ptr %3, i64 24
  store i64 %46, ptr %47, align 8
  %48 = getelementptr inbounds nuw i8, ptr %4, i64 4
  store i8 1, ptr %48, align 1
  %49 = getelementptr inbounds nuw i8, ptr %2, i64 24
  %50 = load i32, ptr %49, align 8
  %51 = and i32 %50, 61440
  %52 = icmp eq i32 %51, 16384
  %53 = zext i1 %52 to i64
  %54 = getelementptr inbounds nuw i8, ptr %3, i64 40
  store i64 %53, ptr %54, align 8
  %55 = call ptr @heap_form_tuple(ptr noundef %32, ptr noundef nonnull %3, ptr noundef nonnull %4) #9
  call void @pfree(ptr noundef %17) #9
  %56 = getelementptr i8, ptr %55, i64 16
  %.val = load ptr, ptr %56, align 8
  %57 = call i64 @HeapTupleHeaderGetDatum(ptr noundef %.val) #9
  br label %58

58:                                               ; preds = %31, %25
  %.018 = phi i64 [ 0, %25 ], [ %57, %31 ]
  call void @llvm.lifetime.end.p0(i64 6, ptr nonnull %4) #9
  call void @llvm.lifetime.end.p0(i64 48, ptr nonnull %3) #9
  call void @llvm.lifetime.end.p0(i64 144, ptr nonnull %2) #9
  ret i64 %.018
}